; Function Attrs: mustprogress uwtable
define noundef double @_ZNK8QuantLib17HestonModelHelper10blackPriceEd(ptr noundef nonnull align 8 dereferenceable(208) %this, double noundef %volatility) unnamed_addr #8 align 2 {
entry:
  %vtable = load ptr, ptr %this, align 8, !tbaa !33
  %vfn = getelementptr inbounds i8, ptr %vtable, i64 24
  %0 = load ptr, ptr %vfn, align 8
  tail call void %0(ptr noundef nonnull align 8 dereferenceable(12) %this)
  %vtable.i = load ptr, ptr %this, align 8, !tbaa !33
  %vfn.i = getelementptr inbounds i8, ptr %vtable.i, i64 24
  %1 = load ptr, ptr %vfn.i, align 8
  tail call void %1(ptr noundef nonnull align 8 dereferenceable(12) %this)
  %tau_.i = getelementptr inbounds nuw i8, ptr %this, i64 176
  %2 = load double, ptr %tau_.i, align 8, !tbaa !130
  %call2 = tail call double @sqrt(double noundef %2) #26, !tbaa !162
  %type_ = getelementptr inbounds nuw i8, ptr %this, i64 184
  %3 = load i32, ptr %type_, align 8, !tbaa !131
  %strikePrice_ = getelementptr inbounds nuw i8, ptr %this, i64 128
  %4 = load double, ptr %strikePrice_, align 8, !tbaa !57
  %riskFreeRate_ = getelementptr inbounds nuw i8, ptr %this, i64 136
  %call3 = tail call noundef nonnull align 8 dereferenceable(16) ptr @_ZNK8QuantLib6HandleINS_18YieldTermStructureEEptEv(ptr noundef nonnull align 8 dereferenceable(16) %riskFreeRate_)
  %5 = load ptr, ptr %call3, align 8, !tbaa !127
  %cmp.not.i = icmp eq ptr %5, null
  br i1 %cmp.not.i, label %cond.false.i, label %_ZNK5boost10shared_ptrIN8QuantLib18YieldTermStructureEEptEv.exit, !prof !129

cond.false.i:                                     ; preds = %entry
  tail call void @_ZN5boost16assertion_failedEPKcS1_S1_l(ptr noundef nonnull @.str.9, ptr noundef nonnull @__PRETTY_FUNCTION__._ZNK5boost10shared_ptrIN8QuantLib18YieldTermStructureEEptEv, ptr noundef nonnull @.str.10, i64 noundef 784)
  %.pre.i = load ptr, ptr %call3, align 8, !tbaa !127
  br label %_ZNK5boost10shared_ptrIN8QuantLib18YieldTermStructureEEptEv.exit

_ZNK5boost10shared_ptrIN8QuantLib18YieldTermStructureEEptEv.exit: ; preds = %entry, %cond.false.i
  %6 = phi ptr [ %5, %entry ], [ %.pre.i, %cond.false.i ]
  %7 = load double, ptr %tau_.i, align 8, !tbaa !130
  %call5 = tail call noundef double @_ZNK8QuantLib18YieldTermStructure8discountEdb(ptr noundef nonnull align 8 dereferenceable(152) %6, double noundef %7, i1 noundef zeroext false)
  %s0_ = getelementptr inbounds nuw i8, ptr %this, i64 112
  %call7 = tail call noundef nonnull align 8 dereferenceable(16) ptr @_ZNK8QuantLib6HandleINS_5QuoteEEptEv(ptr noundef nonnull align 8 dereferenceable(16) %s0_)
  %8 = load ptr, ptr %call7, align 8, !tbaa !55
  %cmp.not.i1 = icmp eq ptr %8, null
  br i1 %cmp.not.i1, label %cond.false.i2, label %_ZNK5boost10shared_ptrIN8QuantLib5QuoteEEptEv.exit, !prof !129

cond.false.i2:                                    ; preds = %_ZNK5boost10shared_ptrIN8QuantLib18YieldTermStructureEEptEv.exit
  tail call void @_ZN5boost16assertion_failedEPKcS1_S1_l(ptr noundef nonnull @.str.9, ptr noundef nonnull @__PRETTY_FUNCTION__._ZNK5boost10shared_ptrIN8QuantLib5QuoteEEptEv, ptr noundef nonnull @.str.10, i64 noundef 784)
  %.pre.i3 = load ptr, ptr %call7, align 8, !tbaa !55
  br label %_ZNK5boost10shared_ptrIN8QuantLib5QuoteEEptEv.exit

_ZNK5boost10shared_ptrIN8QuantLib5QuoteEEptEv.exit: ; preds = %_ZNK5boost10shared_ptrIN8QuantLib18YieldTermStructureEEptEv.exit, %cond.false.i2
  %9 = phi ptr [ %8, %_ZNK5boost10shared_ptrIN8QuantLib18YieldTermStructureEEptEv.exit ], [ %.pre.i3, %cond.false.i2 ]
  %vtable9 = load ptr, ptr %9, align 8, !tbaa !33
  %vfn10 = getelementptr inbounds i8, ptr %vtable9, i64 16
  %10 = load ptr, ptr %vfn10, align 8
  %call11 = tail call noundef double %10(ptr noundef nonnull align 8 dereferenceable(8) %9)
  %dividendYield_ = getelementptr inbounds nuw i8, ptr %this, i64 152
  %call12 = tail call noundef nonnull align 8 dereferenceable(16) ptr @_ZNK8QuantLib6HandleINS_18YieldTermStructureEEptEv(ptr noundef nonnull align 8 dereferenceable(16) %dividendYield_)
  %11 = load ptr, ptr %call12, align 8, !tbaa !127
  %cmp.not.i4 = icmp eq ptr %11, null
  br i1 %cmp.not.i4, label %cond.false.i5, label %_ZNK5boost10shared_ptrIN8QuantLib18YieldTermStructureEEptEv.exit7, !prof !129

cond.false.i5:                                    ; preds = %_ZNK5boost10shared_ptrIN8QuantLib5QuoteEEptEv.exit
  tail call void @_ZN5boost16assertion_failedEPKcS1_S1_l(ptr noundef nonnull @.str.9, ptr noundef nonnull @__PRETTY_FUNCTION__._ZNK5boost10shared_ptrIN8QuantLib18YieldTermStructureEEptEv, ptr noundef nonnull @.str.10, i64 noundef 784)
  %.pre.i6 = load ptr, ptr %call12, align 8, !tbaa !127
  br label %_ZNK5boost10shared_ptrIN8QuantLib18YieldTermStructureEEptEv.exit7

_ZNK5boost10shared_ptrIN8QuantLib18YieldTermStructureEEptEv.exit7: ; preds = %_ZNK5boost10shared_ptrIN8QuantLib5QuoteEEptEv.exit, %cond.false.i5
  %12 = phi ptr [ %11, %_ZNK5boost10shared_ptrIN8QuantLib5QuoteEEptEv.exit ], [ %.pre.i6, %cond.false.i5 ]
  %mul6 = fmul double %4, %call5
  %mul = fmul double %volatility, %call2
  %13 = load double, ptr %tau_.i, align 8, !tbaa !130
  %call15 = tail call noundef double @_ZNK8QuantLib18YieldTermStructure8discountEdb(ptr noundef nonnull align 8 dereferenceable(152) %12, double noundef %13, i1 noundef zeroext false)
  %mul16 = fmul double %call11, %call15
  %call17 = tail call noundef double @_ZN8QuantLib12blackFormulaENS_6Option4TypeEddddd(i32 noundef %3, double noundef %mul6, double noundef %mul16, double noundef %mul, double noundef 1.000000e+00, double noundef 0.000000e+00)
  ret double %call17
}